target datalayout = "e-m:e-p270:32:32-p271:32:32-p272:64:64-i64:64-i128:128-f80:128-n8:16:32:64-S128"
target triple = "x86_64-pc-linux-gnu"

%"class.std::basic_ios" = type { %"class.std::ios_base", ptr, i8, i8, ptr, ptr, ptr, ptr }
%"class.std::ios_base" = type { ptr, i64, i64, i32, i32, i32, ptr, %"struct.std::ios_base::_Words", [8 x %"struct.std::ios_base::_Words"], i32, ptr, %"class.std::locale" }
%"struct.std::ios_base::_Words" = type { ptr, i64 }
%"class.std::locale" = type { ptr }
%"class.pxrInternal_v0_24__pxrReserved__::PcpLayerStackSite" = type { %"class.pxrInternal_v0_24__pxrReserved__::TfRefPtr", %"class.pxrInternal_v0_24__pxrReserved__::SdfPath" }
%"class.pxrInternal_v0_24__pxrReserved__::TfRefPtr" = type { ptr }
%"class.pxrInternal_v0_24__pxrReserved__::SdfPath" = type { %"struct.pxrInternal_v0_24__pxrReserved__::Sdf_PathNodeHandleImpl", %"struct.pxrInternal_v0_24__pxrReserved__::Sdf_PathNodeHandleImpl.0" }
%"struct.pxrInternal_v0_24__pxrReserved__::Sdf_PathNodeHandleImpl" = type { %"struct.pxrInternal_v0_24__pxrReserved__::Sdf_Pool<pxrInternal_v0_24__pxrReserved__::Sdf_PathPrimTag, 24, 8>::Handle" }
%"struct.pxrInternal_v0_24__pxrReserved__::Sdf_Pool<pxrInternal_v0_24__pxrReserved__::Sdf_PathPrimTag, 24, 8>::Handle" = type { i32 }
%"struct.pxrInternal_v0_24__pxrReserved__::Sdf_PathNodeHandleImpl.0" = type { %"struct.pxrInternal_v0_24__pxrReserved__::Sdf_Pool<pxrInternal_v0_24__pxrReserved__::Sdf_PathPropTag, 24, 8>::Handle" }
%"struct.pxrInternal_v0_24__pxrReserved__::Sdf_Pool<pxrInternal_v0_24__pxrReserved__::Sdf_PathPropTag, 24, 8>::Handle" = type { i32 }
%"class.pxrInternal_v0_24__pxrReserved__::TfWeakPtr" = type { ptr, %"class.pxrInternal_v0_24__pxrReserved__::TfRefPtr.1" }
%"class.pxrInternal_v0_24__pxrReserved__::TfRefPtr.1" = type { ptr }
%"class.pxrInternal_v0_24__pxrReserved__::TfCallContext" = type <{ ptr, ptr, i64, ptr, i8, [7 x i8] }>
%"class.std::__cxx11::basic_string" = type { %"struct.std::__cxx11::basic_string<char>::_Alloc_hider", i64, %union.anon.44 }
%"struct.std::__cxx11::basic_string<char>::_Alloc_hider" = type { ptr }
%union.anon.44 = type { i64, [8 x i8] }
%"class.pxrInternal_v0_24__pxrReserved__::PcpLayerStackIdentifier" = type { %"class.pxrInternal_v0_24__pxrReserved__::TfWeakPtr", %"class.pxrInternal_v0_24__pxrReserved__::TfWeakPtr", %"class.pxrInternal_v0_24__pxrReserved__::ArResolverContext", %"class.pxrInternal_v0_24__pxrReserved__::PcpExpressionVariablesSource", i64 }
%"class.pxrInternal_v0_24__pxrReserved__::ArResolverContext" = type { %"class.std::vector.129" }
%"class.std::vector.129" = type { %"struct.std::_Vector_base.130" }
%"struct.std::_Vector_base.130" = type { %"struct.std::_Vector_base<std::shared_ptr<pxrInternal_v0_24__pxrReserved__::ArResolverContext::_Untyped>, std::allocator<std::shared_ptr<pxrInternal_v0_24__pxrReserved__::ArResolverContext::_Untyped>>>::_Vector_impl" }
%"struct.std::_Vector_base<std::shared_ptr<pxrInternal_v0_24__pxrReserved__::ArResolverContext::_Untyped>, std::allocator<std::shared_ptr<pxrInternal_v0_24__pxrReserved__::ArResolverContext::_Untyped>>>::_Vector_impl" = type { %"struct.std::_Vector_base<std::shared_ptr<pxrInternal_v0_24__pxrReserved__::ArResolverContext::_Untyped>, std::allocator<std::shared_ptr<pxrInternal_v0_24__pxrReserved__::ArResolverContext::_Untyped>>>::_Vector_impl_data" }
%"struct.std::_Vector_base<std::shared_ptr<pxrInternal_v0_24__pxrReserved__::ArResolverContext::_Untyped>, std::allocator<std::shared_ptr<pxrInternal_v0_24__pxrReserved__::ArResolverContext::_Untyped>>>::_Vector_impl_data" = type { ptr, ptr, ptr }
%"class.pxrInternal_v0_24__pxrReserved__::PcpExpressionVariablesSource" = type { %"class.std::shared_ptr.134" }
%"class.std::shared_ptr.134" = type { %"class.std::__shared_ptr.135" }
%"class.std::__shared_ptr.135" = type { ptr, %"class.std::__shared_count" }
%"class.std::__shared_count" = type { ptr }
%"class.pxrInternal_v0_24__pxrReserved__::PcpSite" = type { %"class.pxrInternal_v0_24__pxrReserved__::PcpLayerStackIdentifier", %"class.pxrInternal_v0_24__pxrReserved__::SdfPath" }
%"class.std::__cxx11::basic_ostringstream" = type { %"class.std::basic_ostream.base", %"class.std::__cxx11::basic_stringbuf", %"class.std::basic_ios" }
%"class.std::basic_ostream.base" = type { ptr }
%"class.std::__cxx11::basic_stringbuf" = type { %"class.std::basic_streambuf", i32, %"class.std::__cxx11::basic_string" }
%"class.std::basic_streambuf" = type { ptr, ptr, ptr, ptr, ptr, ptr, ptr, %"class.std::locale" }

@.str.7 = private unnamed_addr constant [138 x i8] c"generated/home/dtcxzyw/WorkSpace/Projects/compilers/llvm-opt-benchmark/bench/openusd/OpenUSD/pxr/usd/usd/testenv/testUsdResolveTarget.cpp\00", align 1
@__func__._ZL24_VerifyResolveTargetSiteRKN32pxrInternal_v0_24__pxrReserved__10PcpNodeRefERKNS_7PcpSiteE = private unnamed_addr constant [25 x i8] c"_VerifyResolveTargetSite\00", align 1
@__PRETTY_FUNCTION__._ZL24_VerifyResolveTargetSiteRKN32pxrInternal_v0_24__pxrReserved__10PcpNodeRefERKNS_7PcpSiteE = private unnamed_addr constant [67 x i8] c"void _VerifyResolveTargetSite(const PcpNodeRef &, const PcpSite &)\00", align 1
@.str.50 = private unnamed_addr constant [21 x i8] c"site == expectedSite\00", align 1
@.str.51 = private unnamed_addr constant [39 x i8] c"Site '%s' does not match expected '%s'\00", align 1

; Function Attrs: mustprogress uwtable
define linkonce_odr dso_local void @_ZN32pxrInternal_v0_24__pxrReserved__11TfStringifyINS_7PcpSiteEEENSt7__cxx1112basic_stringIcSt11char_traitsIcESaIcEEERKT_(ptr dead_on_unwind noalias writable sret(%"class.std::__cxx11::basic_string") align 8 %0, ptr noundef nonnull align 8 dereferenceable(88) %1) #4 comdat personality ptr @__gxx_personality_v0 {
  %3 = alloca ptr, align 8
  %4 = alloca ptr, align 8
  %5 = alloca %"class.std::__cxx11::basic_ostringstream", align 8
  %6 = alloca ptr, align 8
  %7 = alloca i32, align 4
  store ptr %0, ptr %3, align 8
  store ptr %1, ptr %4, align 8
  call void @_ZNSt7__cxx1119basic_ostringstreamIcSt11char_traitsIcESaIcEEC1Ev(ptr noundef nonnull align 8 dereferenceable(112) %5)
  %8 = load ptr, ptr %4, align 8
  %9 = invoke noundef nonnull align 8 dereferenceable(8) ptr @_ZN32pxrInternal_v0_24__pxrReserved__lsERSoRKNS_7PcpSiteE(ptr noundef nonnull align 8 dereferenceable(8) %5, ptr noundef nonnull align 8 dereferenceable(88) %8)
          to label %10 unwind label %12

10:                                               ; preds = %2
  invoke void @_ZNKSt7__cxx1119basic_ostringstreamIcSt11char_traitsIcESaIcEE3strEv(ptr dead_on_unwind writable sret(%"class.std::__cxx11::basic_string") align 8 %0, ptr noundef nonnull align 8 dereferenceable(112) %5)
          to label %11 unwind label %12

11:                                               ; preds = %10
  call void @_ZNSt7__cxx1119basic_ostringstreamIcSt11char_traitsIcESaIcEED1Ev(ptr noundef nonnull align 8 dereferenceable(112) %5) #3
  ret void

12:                                               ; preds = %10, %2
  %13 = landingpad { ptr, i32 }
          cleanup
  %14 = extractvalue { ptr, i32 } %13, 0
  store ptr %14, ptr %6, align 8
  %15 = extractvalue { ptr, i32 } %13, 1
  store i32 %15, ptr %7, align 4
  call void @_ZNSt7__cxx1119basic_ostringstreamIcSt11char_traitsIcESaIcEED1Ev(ptr noundef nonnull align 8 dereferenceable(112) %5) #3
  br label %16

16:                                               ; preds = %12
  %17 = load ptr, ptr %6, align 8
  %18 = load i32, ptr %7, align 4
  %19 = insertvalue { ptr, i32 } poison, ptr %17, 0
  %20 = insertvalue { ptr, i32 } %19, i32 %18, 1
  resume { ptr, i32 } %20
}

; Function Attrs: mustprogress nounwind uwtable
define linkonce_odr dso_local void @_ZN32pxrInternal_v0_24__pxrReserved__13TfCallContextC2EPKcS2_mS2_(ptr noundef nonnull align 8 dereferenceable(33) %0, ptr noundef %1, ptr noundef %2, i64 noundef %3, ptr noundef %4) unnamed_addr #5 comdat align 2 {
  %6 = alloca ptr, align 8
  %7 = alloca ptr, align 8
  %8 = alloca ptr, align 8
  %9 = alloca i64, align 8
  %10 = alloca ptr, align 8
  store ptr %0, ptr %6, align 8
  store ptr %1, ptr %7, align 8
  store ptr %2, ptr %8, align 8
  store i64 %3, ptr %9, align 8
  store ptr %4, ptr %10, align 8
  %11 = load ptr, ptr %6, align 8
  %12 = getelementptr inbounds nuw %"class.pxrInternal_v0_24__pxrReserved__::TfCallContext", ptr %11, i32 0, i32 0
  %13 = load ptr, ptr %7, align 8
  store ptr %13, ptr %12, align 8
  %14 = getelementptr inbounds nuw %"class.pxrInternal_v0_24__pxrReserved__::TfCallContext", ptr %11, i32 0, i32 1
  %15 = load ptr, ptr %8, align 8
  store ptr %15, ptr %14, align 8
  %16 = getelementptr inbounds nuw %"class.pxrInternal_v0_24__pxrReserved__::TfCallContext", ptr %11, i32 0, i32 2
  %17 = load i64, ptr %9, align 8
  store i64 %17, ptr %16, align 8
  %18 = getelementptr inbounds nuw %"class.pxrInternal_v0_24__pxrReserved__::TfCallContext", ptr %11, i32 0, i32 3
  %19 = load ptr, ptr %10, align 8
  store ptr %19, ptr %18, align 8
  %20 = getelementptr inbounds nuw %"class.pxrInternal_v0_24__pxrReserved__::TfCallContext", ptr %11, i32 0, i32 4
  store i8 0, ptr %20, align 8
  ret void
}

; Function Attrs: mustprogress uwtable
define internal void @_ZL24_VerifyResolveTargetSiteRKN32pxrInternal_v0_24__pxrReserved__10PcpNodeRefERKNS_7PcpSiteE(ptr noundef nonnull align 8 dereferenceable(16) %0, ptr noundef nonnull align 8 dereferenceable(88) %1) #4 personality ptr @__gxx_personality_v0 {
  %3 = alloca ptr, align 8
  %4 = alloca ptr, align 8
  %5 = alloca %"class.pxrInternal_v0_24__pxrReserved__::PcpSite", align 8
  %6 = alloca %"class.pxrInternal_v0_24__pxrReserved__::PcpLayerStackSite", align 8
  %7 = alloca ptr, align 8
  %8 = alloca i32, align 4
  %9 = alloca %"class.pxrInternal_v0_24__pxrReserved__::TfCallContext", align 8
  %10 = alloca %"class.std::__cxx11::basic_string", align 8
  %11 = alloca i1, align 1
  %12 = alloca %"class.std::__cxx11::basic_string", align 8
  %13 = alloca i1, align 1
  store ptr %0, ptr %3, align 8
  store ptr %1, ptr %4, align 8
  %14 = load ptr, ptr %3, align 8
  call void @_ZNK32pxrInternal_v0_24__pxrReserved__10PcpNodeRef7GetSiteEv(ptr dead_on_unwind writable sret(%"class.pxrInternal_v0_24__pxrReserved__::PcpLayerStackSite") align 8 %6, ptr noundef nonnull align 8 dereferenceable(16) %14)
  invoke void @_ZN32pxrInternal_v0_24__pxrReserved__7PcpSiteC1ERKNS_17PcpLayerStackSiteE(ptr noundef nonnull align 8 dereferenceable(88) %5, ptr noundef nonnull align 8 dereferenceable(16) %6)
          to label %15 unwind label %38

15:                                               ; preds = %2
  call void @_ZN32pxrInternal_v0_24__pxrReserved__17PcpLayerStackSiteD2Ev(ptr noundef nonnull align 8 dereferenceable(16) %6) #3
  %16 = load ptr, ptr %4, align 8
  store i1 false, ptr %11, align 1
  store i1 false, ptr %13, align 1
  %17 = invoke noundef zeroext i1 @_ZNK32pxrInternal_v0_24__pxrReserved__7PcpSiteeqERKS0_(ptr noundef nonnull align 8 dereferenceable(88) %5, ptr noundef nonnull align 8 dereferenceable(88) %16)
          to label %18 unwind label %42

18:                                               ; preds = %15
  br i1 %17, label %19, label %20

19:                                               ; preds = %18
  br label %31

20:                                               ; preds = %18
  invoke void @_ZN32pxrInternal_v0_24__pxrReserved__13TfCallContextC2EPKcS2_mS2_(ptr noundef nonnull align 8 dereferenceable(33) %9, ptr noundef @.str.7, ptr noundef @__func__._ZL24_VerifyResolveTargetSiteRKN32pxrInternal_v0_24__pxrReserved__10PcpNodeRefERKNS_7PcpSiteE, i64 noundef 53, ptr noundef @__PRETTY_FUNCTION__._ZL24_VerifyResolveTargetSiteRKN32pxrInternal_v0_24__pxrReserved__10PcpNodeRefERKNS_7PcpSiteE)
          to label %21 unwind label %42

21:                                               ; preds = %20
  invoke void @_ZN32pxrInternal_v0_24__pxrReserved__11TfStringifyINS_7PcpSiteEEENSt7__cxx1112basic_stringIcSt11char_traitsIcESaIcEEERKT_(ptr dead_on_unwind writable sret(%"class.std::__cxx11::basic_string") align 8 %10, ptr noundef nonnull align 8 dereferenceable(88) %5)
          to label %22 unwind label %42

22:                                               ; preds = %21
  store i1 true, ptr %11, align 1
  %23 = call noundef ptr @_ZNKSt7__cxx1112basic_stringIcSt11char_traitsIcESaIcEE5c_strEv(ptr noundef nonnull align 8 dereferenceable(32) %10) #3
  %24 = load ptr, ptr %4, align 8
  invoke void @_ZN32pxrInternal_v0_24__pxrReserved__11TfStringifyINS_7PcpSiteEEENSt7__cxx1112basic_stringIcSt11char_traitsIcESaIcEEERKT_(ptr dead_on_unwind writable sret(%"class.std::__cxx11::basic_string") align 8 %12, ptr noundef nonnull align 8 dereferenceable(88) %24)
          to label %25 unwind label %46

25:                                               ; preds = %22
  store i1 true, ptr %13, align 1
  %26 = call noundef ptr @_ZNKSt7__cxx1112basic_stringIcSt11char_traitsIcESaIcEE5c_strEv(ptr noundef nonnull align 8 dereferenceable(32) %12) #3
  %27 = invoke noundef ptr (ptr, ...) @_ZN32pxrInternal_v0_24__pxrReserved__21Tf_VerifyStringFormatEPKcz(ptr noundef @.str.51, ptr noundef %23, ptr noundef %26)
          to label %28 unwind label %50

28:                                               ; preds = %25
  %29 = invoke noundef zeroext i1 @_ZN32pxrInternal_v0_24__pxrReserved__21Tf_FailedVerifyHelperERKNS_13TfCallContextEPKcS4_(ptr noundef nonnull align 8 dereferenceable(33) %9, ptr noundef @.str.50, ptr noundef %27)
          to label %30 unwind label %50

30:                                               ; preds = %28
  br label %31

31:                                               ; preds = %30, %19
  %32 = load i1, ptr %13, align 1
  br i1 %32, label %33, label %34

33:                                               ; preds = %31
  call void @_ZNSt7__cxx1112basic_stringIcSt11char_traitsIcESaIcEED1Ev(ptr noundef nonnull align 8 dereferenceable(32) %12) #3
  br label %34

34:                                               ; preds = %33, %31
  %35 = load i1, ptr %11, align 1
  br i1 %35, label %36, label %37

36:                                               ; preds = %34
  call void @_ZNSt7__cxx1112basic_stringIcSt11char_traitsIcESaIcEED1Ev(ptr noundef nonnull align 8 dereferenceable(32) %10) #3
  br label %37

37:                                               ; preds = %36, %34
  call void @_ZN32pxrInternal_v0_24__pxrReserved__7PcpSiteD2Ev(ptr noundef nonnull align 8 dereferenceable(88) %5) #3
  ret void

38:                                               ; preds = %2
  %39 = landingpad { ptr, i32 }
          cleanup
  %40 = extractvalue { ptr, i32 } %39, 0
  store ptr %40, ptr %7, align 8
  %41 = extractvalue { ptr, i32 } %39, 1
  store i32 %41, ptr %8, align 4
  call void @_ZN32pxrInternal_v0_24__pxrReserved__17PcpLayerStackSiteD2Ev(ptr noundef nonnull align 8 dereferenceable(16) %6) #3
  br label %62

42:                                               ; preds = %21, %20, %15
  %43 = landingpad { ptr, i32 }
          cleanup
  %44 = extractvalue { ptr, i32 } %43, 0
  store ptr %44, ptr %7, align 8
  %45 = extractvalue { ptr, i32 } %43, 1
  store i32 %45, ptr %8, align 4
  br label %61

46:                                               ; preds = %22
  %47 = landingpad { ptr, i32 }
          cleanup
  %48 = extractvalue { ptr, i32 } %47, 0
  store ptr %48, ptr %7, align 8
  %49 = extractvalue { ptr, i32 } %47, 1
  store i32 %49, ptr %8, align 4
  br label %57

50:                                               ; preds = %28, %25
  %51 = landingpad { ptr, i32 }
          cleanup
  %52 = extractvalue { ptr, i32 } %51, 0
  store ptr %52, ptr %7, align 8
  %53 = extractvalue { ptr, i32 } %51, 1
  store i32 %53, ptr %8, align 4
  %54 = load i1, ptr %13, align 1
  br i1 %54, label %55, label %56

55:                                               ; preds = %50
  call void @_ZNSt7__cxx1112basic_stringIcSt11char_traitsIcESaIcEED1Ev(ptr noundef nonnull align 8 dereferenceable(32) %12) #3
  br label %56

56:                                               ; preds = %55, %50
  br label %57

57:                                               ; preds = %56, %46
  %58 = load i1, ptr %11, align 1
  br i1 %58, label %59, label %60

59:                                               ; preds = %57
  call void @_ZNSt7__cxx1112basic_stringIcSt11char_traitsIcESaIcEED1Ev(ptr noundef nonnull align 8 dereferenceable(32) %10) #3
  br label %60

60:                                               ; preds = %59, %57
  br label %61

61:                                               ; preds = %60, %42
  call void @_ZN32pxrInternal_v0_24__pxrReserved__7PcpSiteD2Ev(ptr noundef nonnull align 8 dereferenceable(88) %5) #3
  br label %62

62:                                               ; preds = %61, %38
  %63 = load ptr, ptr %7, align 8
  %64 = load i32, ptr %8, align 4
  %65 = insertvalue { ptr, i32 } poison, ptr %63, 0
  %66 = insertvalue { ptr, i32 } %65, i32 %64, 1
  resume { ptr, i32 } %66
}