; Function Attrs: mustprogress norecurse uwtable
define internal fastcc void @_ZL24_VerifyResolveTargetSiteRKN32pxrInternal_v0_24__pxrReserved__10PcpNodeRefERKNS_7PcpSiteE(ptr noundef nonnull align 8 dereferenceable(16) %0, ptr noundef nonnull align 8 dereferenceable(88) %1) unnamed_addr #5 personality ptr @__gxx_personality_v0 {
  %3 = alloca %"class.std::__cxx11::basic_ostringstream", align 8
  %4 = alloca %"class.std::__cxx11::basic_ostringstream", align 8
  %5 = alloca %"class.pxrInternal_v0_24__pxrReserved__::PcpSite", align 8
  %6 = alloca %"class.pxrInternal_v0_24__pxrReserved__::PcpLayerStackSite", align 8
  %7 = alloca %"class.pxrInternal_v0_24__pxrReserved__::TfCallContext", align 8
  %8 = alloca %"class.std::__cxx11::basic_string", align 8
  %9 = alloca %"class.std::__cxx11::basic_string", align 8
  call void @_ZNK32pxrInternal_v0_24__pxrReserved__10PcpNodeRef7GetSiteEv(ptr dead_on_unwind nonnull writable sret(%"class.pxrInternal_v0_24__pxrReserved__::PcpLayerStackSite") align 8 %6, ptr noundef nonnull align 8 dereferenceable(16) %0)
  invoke void @_ZN32pxrInternal_v0_24__pxrReserved__7PcpSiteC1ERKNS_17PcpLayerStackSiteE(ptr noundef nonnull align 8 dereferenceable(88) %5, ptr noundef nonnull align 8 dereferenceable(16) %6)
          to label %10 unwind label %52

10:                                               ; preds = %2
  call void @_ZN32pxrInternal_v0_24__pxrReserved__17PcpLayerStackSiteD2Ev(ptr noundef nonnull align 8 dereferenceable(16) %6) #19
  %11 = invoke noundef zeroext i1 @_ZNK32pxrInternal_v0_24__pxrReserved__7PcpSiteeqERKS0_(ptr noundef nonnull align 8 dereferenceable(88) %5, ptr noundef nonnull align 8 dereferenceable(88) %1)
          to label %12 unwind label %54

12:                                               ; preds = %10
  br i1 %11, label %.critedge16, label %13

13:                                               ; preds = %12
  store ptr @.str.7, ptr %7, align 8
  %14 = getelementptr inbounds nuw i8, ptr %7, i64 8
  store ptr @__func__._ZL24_VerifyResolveTargetSiteRKN32pxrInternal_v0_24__pxrReserved__10PcpNodeRefERKNS_7PcpSiteE, ptr %14, align 8
  %15 = getelementptr inbounds nuw i8, ptr %7, i64 16
  store i64 53, ptr %15, align 8
  %16 = getelementptr inbounds nuw i8, ptr %7, i64 24
  store ptr @__PRETTY_FUNCTION__._ZL24_VerifyResolveTargetSiteRKN32pxrInternal_v0_24__pxrReserved__10PcpNodeRefERKNS_7PcpSiteE, ptr %16, align 8
  %17 = getelementptr inbounds nuw i8, ptr %7, i64 32
  store i8 0, ptr %17, align 8
  call void @llvm.lifetime.start.p0(i64 376, ptr nonnull %4)
  invoke void @_ZNSt7__cxx1119basic_ostringstreamIcSt11char_traitsIcESaIcEEC1Ev(ptr noundef nonnull align 8 dereferenceable(112) %4)
          to label %.noexc unwind label %54

.noexc:                                           ; preds = %13
  %18 = invoke noundef nonnull align 8 dereferenceable(8) ptr @_ZN32pxrInternal_v0_24__pxrReserved__lsERSoRKNS_7PcpSiteE(ptr noundef nonnull align 8 dereferenceable(8) %4, ptr noundef nonnull align 8 dereferenceable(88) %5)
          to label %19 unwind label %20, !noalias !98

19:                                               ; preds = %.noexc
  invoke void @_ZNKSt7__cxx1119basic_ostringstreamIcSt11char_traitsIcESaIcEE3strEv(ptr dead_on_unwind nonnull writable sret(%"class.std::__cxx11::basic_string") align 8 %8, ptr noundef nonnull align 8 dereferenceable(112) %4)
          to label %22 unwind label %20

20:                                               ; preds = %19, %.noexc
  %21 = landingpad { ptr, i32 }
          cleanup
  call void @_ZNSt7__cxx1119basic_ostringstreamIcSt11char_traitsIcESaIcEED1Ev(ptr noundef nonnull align 8 dereferenceable(112) %4) #19
  br label %.body

22:                                               ; preds = %19
  call void @_ZNSt7__cxx1119basic_ostringstreamIcSt11char_traitsIcESaIcEED1Ev(ptr noundef nonnull align 8 dereferenceable(112) %4) #19
  call void @llvm.lifetime.end.p0(i64 376, ptr nonnull %4)
  %23 = call noundef ptr @_ZNKSt7__cxx1112basic_stringIcSt11char_traitsIcESaIcEE5c_strEv(ptr noundef nonnull align 8 dereferenceable(32) %8) #19
  call void @llvm.lifetime.start.p0(i64 376, ptr nonnull %3)
  invoke void @_ZNSt7__cxx1119basic_ostringstreamIcSt11char_traitsIcESaIcEEC1Ev(ptr noundef nonnull align 8 dereferenceable(112) %3)
          to label %.noexc17 unwind label %56

.noexc17:                                         ; preds = %22
  %24 = invoke noundef nonnull align 8 dereferenceable(8) ptr @_ZN32pxrInternal_v0_24__pxrReserved__lsERSoRKNS_7PcpSiteE(ptr noundef nonnull align 8 dereferenceable(8) %3, ptr noundef nonnull align 8 dereferenceable(88) %1)
          to label %25 unwind label %26, !noalias !101

25:                                               ; preds = %.noexc17
  invoke void @_ZNKSt7__cxx1119basic_ostringstreamIcSt11char_traitsIcESaIcEE3strEv(ptr dead_on_unwind nonnull writable sret(%"class.std::__cxx11::basic_string") align 8 %9, ptr noundef nonnull align 8 dereferenceable(112) %3)
          to label %28 unwind label %26

26:                                               ; preds = %25, %.noexc17
  %27 = landingpad { ptr, i32 }
          cleanup
  call void @_ZNSt7__cxx1119basic_ostringstreamIcSt11char_traitsIcESaIcEED1Ev(ptr noundef nonnull align 8 dereferenceable(112) %3) #19
  br label %.body18

28:                                               ; preds = %25
  call void @_ZNSt7__cxx1119basic_ostringstreamIcSt11char_traitsIcESaIcEED1Ev(ptr noundef nonnull align 8 dereferenceable(112) %3) #19
  call void @llvm.lifetime.end.p0(i64 376, ptr nonnull %3)
  %29 = call noundef ptr @_ZNKSt7__cxx1112basic_stringIcSt11char_traitsIcESaIcEE5c_strEv(ptr noundef nonnull align 8 dereferenceable(32) %9) #19
  %30 = invoke noundef ptr (ptr, ...) @_ZN32pxrInternal_v0_24__pxrReserved__21Tf_VerifyStringFormatEPKcz(ptr noundef nonnull @.str.51, ptr noundef %23, ptr noundef %29)
          to label %31 unwind label %58

31:                                               ; preds = %28
  %32 = invoke noundef zeroext i1 @_ZN32pxrInternal_v0_24__pxrReserved__21Tf_FailedVerifyHelperERKNS_13TfCallContextEPKcS4_(ptr noundef nonnull align 8 dereferenceable(33) %7, ptr noundef nonnull @.str.50, ptr noundef %30)
          to label %.critedge unwind label %58

.critedge:                                        ; preds = %31
  call void @_ZNSt7__cxx1112basic_stringIcSt11char_traitsIcESaIcEED1Ev(ptr noundef nonnull align 8 dereferenceable(32) %9) #19
  call void @_ZNSt7__cxx1112basic_stringIcSt11char_traitsIcESaIcEED1Ev(ptr noundef nonnull align 8 dereferenceable(32) %8) #19
  br label %.critedge16

.critedge16:                                      ; preds = %12, %.critedge
  %33 = getelementptr inbounds nuw i8, ptr %5, i64 80
  %34 = load i32, ptr %33, align 8
  %.not.i.i.i = icmp eq i32 %34, 0
  br i1 %.not.i.i.i, label %_ZN32pxrInternal_v0_24__pxrReserved__7PcpSiteD2Ev.exit, label %35

35:                                               ; preds = %.critedge16
  %36 = and i32 %34, 255
  %37 = lshr i32 %34, 8
  %38 = zext nneg i32 %36 to i64
  %39 = getelementptr inbounds [257 x ptr], ptr @_ZN32pxrInternal_v0_24__pxrReserved__8Sdf_PoolINS_15Sdf_PathPrimTagELj24ELj8ELj16384EE13_regionStartsE, i64 0, i64 %38
  %40 = load ptr, ptr %39, align 8
  %41 = mul nuw nsw i32 %37, 24
  %42 = zext nneg i32 %41 to i64
  %43 = getelementptr inbounds i8, ptr %40, i64 %42
  %44 = getelementptr inbounds nuw i8, ptr %43, i64 8
  %45 = atomicrmw sub ptr %44, i32 1 seq_cst, align 4
  %46 = and i32 %45, 2147483647
  %47 = icmp eq i32 %46, 1
  br i1 %47, label %48, label %_ZN32pxrInternal_v0_24__pxrReserved__7PcpSiteD2Ev.exit

48:                                               ; preds = %35
  invoke void @_ZNK32pxrInternal_v0_24__pxrReserved__12Sdf_PathNode8_DestroyEv(ptr noundef nonnull align 8 dereferenceable(16) %43)
          to label %_ZN32pxrInternal_v0_24__pxrReserved__7PcpSiteD2Ev.exit unwind label %49

49:                                               ; preds = %48
  %50 = landingpad { ptr, i32 }
          catch ptr null
  %51 = extractvalue { ptr, i32 } %50, 0
  call void @__clang_call_terminate(ptr %51) #21
  unreachable

_ZN32pxrInternal_v0_24__pxrReserved__7PcpSiteD2Ev.exit: ; preds = %.critedge16, %35, %48
  call void @_ZN32pxrInternal_v0_24__pxrReserved__23PcpLayerStackIdentifierD2Ev(ptr noundef nonnull align 8 dereferenceable(80) %5) #19
  ret void

52:                                               ; preds = %2
  %53 = landingpad { ptr, i32 }
          cleanup
  call void @_ZN32pxrInternal_v0_24__pxrReserved__17PcpLayerStackSiteD2Ev(ptr noundef nonnull align 8 dereferenceable(16) %6) #19
  br label %60

54:                                               ; preds = %13, %10
  %55 = landingpad { ptr, i32 }
          cleanup
  br label %.body

56:                                               ; preds = %22
  %57 = landingpad { ptr, i32 }
          cleanup
  br label %.body18

58:                                               ; preds = %31, %28
  %59 = landingpad { ptr, i32 }
          cleanup
  call void @_ZNSt7__cxx1112basic_stringIcSt11char_traitsIcESaIcEED1Ev(ptr noundef nonnull align 8 dereferenceable(32) %9) #19
  br label %.body18

.body18:                                          ; preds = %56, %26, %58
  %.pn = phi { ptr, i32 } [ %59, %58 ], [ %57, %56 ], [ %27, %26 ]
  call void @_ZNSt7__cxx1112basic_stringIcSt11char_traitsIcESaIcEED1Ev(ptr noundef nonnull align 8 dereferenceable(32) %8) #19
  br label %.body

.body:                                            ; preds = %54, %20, %.body18
  %.pn.pn = phi { ptr, i32 } [ %.pn, %.body18 ], [ %55, %54 ], [ %21, %20 ]
  call void @_ZN32pxrInternal_v0_24__pxrReserved__7PcpSiteD2Ev(ptr noundef nonnull align 8 dereferenceable(88) %5) #19
  br label %60

60:                                               ; preds = %.body, %52
  %.pn.pn.pn = phi { ptr, i32 } [ %.pn.pn, %.body ], [ %53, %52 ]
  resume { ptr, i32 } %.pn.pn.pn
}